target datalayout = "e-m:e-p270:32:32-p271:32:32-p272:64:64-i64:64-i128:128-f80:128-n8:16:32:64-S128"
target triple = "x86_64-unknown-linux-gnu"

%"struct.cvc5::internal::StatisticAverageValue" = type { %"struct.cvc5::internal::StatisticBaseValue.base", double, i64 }
%"struct.cvc5::internal::StatisticBaseValue.base" = type <{ ptr, i8 }>

; Function Attrs: mustprogress nounwind uwtable
define hidden noundef double @_ZNK4cvc58internal21StatisticAverageValue3getEv(ptr noundef nonnull align 8 dereferenceable(32) %this) #2 align 2 {
entry:
  %this.addr = alloca ptr, align 8
  store ptr %this, ptr %this.addr, align 8
  %this1 = load ptr, ptr %this.addr, align 8
  %d_sum = getelementptr inbounds %"struct.cvc5::internal::StatisticAverageValue", ptr %this1, i32 0, i32 1
  %0 = load double, ptr %d_sum, align 8
  %d_count = getelementptr inbounds %"struct.cvc5::internal::StatisticAverageValue", ptr %this1, i32 0, i32 2
  %1 = load i64, ptr %d_count, align 8
  %conv = uitofp i64 %1 to double
  %div = fdiv double %0, %conv
  ret double %div
}