; Function Attrs: mustprogress nofree norecurse nosync nounwind willreturn memory(argmem: read) uwtable
define hidden noundef double @_ZNK4cvc58internal21StatisticAverageValue3getEv(ptr nocapture noundef nonnull readonly align 8 dereferenceable(32) %this) local_unnamed_addr #6 align 2 {
entry:
  %d_sum = getelementptr inbounds i8, ptr %this, i64 16
  %0 = load double, ptr %d_sum, align 8
  %d_count = getelementptr inbounds i8, ptr %this, i64 24
  %1 = load i64, ptr %d_count, align 8
  %conv = uitofp i64 %1 to double
  %div = fdiv double %0, %conv
  ret double %div
}